; ModuleID = '54/115.c'
source_filename = "54/115.c"
target datalayout = "e-m:e-p270:32:32-p271:32:32-p272:64:64-i64:64-f80:128-n8:16:32:64-S128"
target triple = "x86_64-pc-linux-gnu"

@.str = private unnamed_addr constant [6 x i8] c"%d %d\00", align 1
@.str.1 = private unnamed_addr constant [4 x i8] c"%d\0A\00", align 1

; Function Attrs: noinline nounwind uwtable
define dso_local i32 @main() #0 {
  %1 = alloca i32, align 4
  %2 = alloca i32, align 4
  %3 = alloca i32, align 4
  %4 = alloca i32, align 4
  %5 = alloca i32, align 4
  %6 = alloca i32, align 4
  %7 = alloca i32, align 4
  %8 = alloca i32, align 4
  store i32 0, i32* %1, align 4
  %9 = call i32 (i8*, ...) @__isoc99_scanf(i8* getelementptr inbounds ([6 x i8], [6 x i8]* @.str, i64 0, i64 0), i32* %8, i32* %5)
  store i32 0, i32* %6, align 4
  store i32 1, i32* %3, align 4
  br label %10

10:                                               ; preds = %57, %0
  %11 = load i32, i32* %6, align 4
  %12 = icmp eq i32 %11, 0
  br i1 %12, label %13, label %60

13:                                               ; preds = %10
  %14 = load i32, i32* %3, align 4
  %15 = load i32, i32* %8, align 4
  %16 = mul nsw i32 %14, %15
  %17 = load i32, i32* %5, align 4
  %18 = add nsw i32 %16, %17
  store i32 %18, i32* %7, align 4
  store i32 0, i32* %2, align 4
  store i32 2, i32* %4, align 4
  br label %19

19:                                               ; preds = %45, %13
  %20 = load i32, i32* %4, align 4
  %21 = load i32, i32* %8, align 4
  %22 = icmp sle i32 %20, %21
  br i1 %22, label %23, label %26

23:                                               ; preds = %19
  %24 = load i32, i32* %2, align 4
  %25 = icmp eq i32 %24, 0
  br label %26

26:                                               ; preds = %23, %19
  %27 = phi i1 [ false, %19 ], [ %25, %23 ]
  br i1 %27, label %28, label %48

28:                                               ; preds = %26
  %29 = load i32, i32* %7, align 4
  %30 = load i32, i32* %8, align 4
  %31 = sub nsw i32 %30, 1
  %32 = srem i32 %29, %31
  %33 = icmp eq i32 %32, 0
  br i1 %33, label %34, label %43

34:                                               ; preds = %28
  %35 = load i32, i32* %7, align 4
  %36 = load i32, i32* %8, align 4
  %37 = sub nsw i32 %36, 1
  %38 = sdiv i32 %35, %37
  %39 = load i32, i32* %8, align 4
  %40 = mul nsw i32 %38, %39
  %41 = load i32, i32* %5, align 4
  %42 = add nsw i32 %40, %41
  store i32 %42, i32* %7, align 4
  br label %44

43:                                               ; preds = %28
  store i32 1, i32* %2, align 4
  br label %48

44:                                               ; preds = %34
  br label %45

45:                                               ; preds = %44
  %46 = load i32, i32* %4, align 4
  %47 = add nsw i32 %46, 1
  store i32 %47, i32* %4, align 4
  br label %19

48:                                               ; preds = %43, %26
  %49 = load i32, i32* %2, align 4
  %50 = icmp ne i32 %49, 0
  br i1 %50, label %51, label %53

51:                                               ; preds = %48
  %52 = load i32, i32* %2, align 4
  store i32 %52, i32* %2, align 4
  br label %56

53:                                               ; preds = %48
  %54 = load i32, i32* %7, align 4
  %55 = call i32 (i8*, ...) @printf(i8* getelementptr inbounds ([4 x i8], [4 x i8]* @.str.1, i64 0, i64 0), i32 %54)
  store i32 1, i32* %6, align 4
  br label %60

56:                                               ; preds = %51
  br label %57

57:                                               ; preds = %56
  %58 = load i32, i32* %3, align 4
  %59 = add nsw i32 %58, 1
  store i32 %59, i32* %3, align 4
  br label %10

60:                                               ; preds = %53, %10
  %61 = load i32, i32* %1, align 4
  ret i32 %61
}

declare dso_local i32 @__isoc99_scanf(i8*, ...) #1

declare dso_local i32 @printf(i8*, ...) #1


!llvm.module.flags = !{!0}
!llvm.ident = !{!1}

!0 = !{i32 1, !"wchar_size", i32 4}
!1 = !{!"clang version 10.0.0-4ubuntu1 "}
