; ModuleID = 'source-C-CXX/53/115.c'
source_filename = "source-C-CXX/53/115.c"
target datalayout = "e-m:e-p270:32:32-p271:32:32-p272:64:64-i64:64-f80:128-n8:16:32:64-S128"
target triple = "x86_64-pc-linux-gnu"

@.str = private unnamed_addr constant [6 x i8] c"%d %d\00", align 1
@.str.1 = private unnamed_addr constant [4 x i8] c"%d\0A\00", align 1

; Function Attrs: nofree nounwind sspstrong uwtable
define dso_local i32 @main() local_unnamed_addr #0 {
  %1 = alloca i32, align 4
  %2 = alloca i32, align 4
  %3 = bitcast i32* %1 to i8*
  call void @llvm.lifetime.start.p0i8(i64 4, i8* nonnull %3) #3
  %4 = bitcast i32* %2 to i8*
  call void @llvm.lifetime.start.p0i8(i64 4, i8* nonnull %4) #3
  %5 = call i32 (i8*, ...) @__isoc99_scanf(i8* getelementptr inbounds ([6 x i8], [6 x i8]* @.str, i64 0, i64 0), i32* nonnull %2, i32* nonnull %1)
  %6 = load i32, i32* %2, align 4, !tbaa !5
  %7 = load i32, i32* %1, align 4, !tbaa !5
  %8 = add nsw i32 %6, -1
  %9 = icmp slt i32 %6, 2
  %10 = add nsw i32 %6, %7
  br i1 %9, label %29, label %11

11:                                               ; preds = %0, %25
  %12 = phi i32 [ %28, %25 ], [ %10, %0 ]
  %13 = phi i32 [ %26, %25 ], [ 1, %0 ]
  br label %14

14:                                               ; preds = %11, %20
  %15 = phi i32 [ %12, %11 ], [ %23, %20 ]
  %16 = phi i32 [ 2, %11 ], [ %21, %20 ]
  %17 = srem i32 %15, %8
  %18 = sdiv i32 %15, %8
  %19 = icmp eq i32 %17, 0
  br i1 %19, label %20, label %25

20:                                               ; preds = %14
  %21 = add nuw i32 %16, 1
  %22 = mul nsw i32 %18, %6
  %23 = add nsw i32 %22, %7
  %24 = icmp eq i32 %16, %6
  br i1 %24, label %29, label %14, !llvm.loop !9

25:                                               ; preds = %14
  %26 = add nuw nsw i32 %13, 1
  %27 = mul nsw i32 %26, %6
  %28 = add nsw i32 %27, %7
  br label %11

29:                                               ; preds = %20, %0
  %30 = phi i32 [ %10, %0 ], [ %23, %20 ]
  %31 = call i32 (i8*, ...) @printf(i8* nonnull dereferenceable(1) getelementptr inbounds ([4 x i8], [4 x i8]* @.str.1, i64 0, i64 0), i32 %30)
  call void @llvm.lifetime.end.p0i8(i64 4, i8* nonnull %4) #3
  call void @llvm.lifetime.end.p0i8(i64 4, i8* nonnull %3) #3
  ret i32 0
}

; Function Attrs: argmemonly mustprogress nofree nosync nounwind willreturn
declare void @llvm.lifetime.start.p0i8(i64 immarg, i8* nocapture) #1

; Function Attrs: nofree nounwind
declare noundef i32 @__isoc99_scanf(i8* nocapture noundef readonly, ...) local_unnamed_addr #2

; Function Attrs: nofree nounwind
declare noundef i32 @printf(i8* nocapture noundef readonly, ...) local_unnamed_addr #2

; Function Attrs: argmemonly mustprogress nofree nosync nounwind willreturn
declare void @llvm.lifetime.end.p0i8(i64 immarg, i8* nocapture) #1


!llvm.module.flags = !{!0, !1, !2, !3}
!llvm.ident = !{!4}

!0 = !{i32 1, !"wchar_size", i32 4}
!1 = !{i32 7, !"PIC Level", i32 2}
!2 = !{i32 7, !"PIE Level", i32 2}
!3 = !{i32 7, !"uwtable", i32 1}
!4 = !{!"clang version 13.0.0"}
!5 = !{!6, !6, i64 0}
!6 = !{!"int", !7, i64 0}
!7 = !{!"omnipotent char", !8, i64 0}
!8 = !{!"Simple C/C++ TBAA"}
!9 = distinct !{!9, !10}
!10 = !{!"llvm.loop.mustprogress"}
